; Function Attrs: nounwind uwtable
define hidden i32 @buffer_fill(ptr nocapture noundef %0) local_unnamed_addr #4 {
  %2 = getelementptr inbounds i8, ptr %0, i64 184
  %3 = load i64, ptr %2, align 8
  %.not = icmp eq i64 %3, 0
  br i1 %.not, label %7, label %4

4:                                                ; preds = %1
  %5 = icmp eq i64 %3, -1
  %6 = sext i1 %5 to i32
  br label %42

7:                                                ; preds = %1
  %8 = getelementptr inbounds i8, ptr %0, i64 32
  %9 = load i32, ptr %8, align 8
  %10 = and i32 %9, 61440
  %11 = icmp eq i32 %10, 32768
  br i1 %11, label %12, label %41

12:                                               ; preds = %7
  %13 = getelementptr inbounds i8, ptr %0, i64 56
  %14 = load i64, ptr %13, align 8
  %15 = getelementptr inbounds i8, ptr %0, i64 160
  %16 = load i64, ptr %15, align 8
  %. = tail call i64 @llvm.umin.i64(i64 %14, i64 %16)
  store i64 %., ptr %2, align 8
  %17 = icmp eq i64 %., 0
  br i1 %17, label %18, label %21

18:                                               ; preds = %12
  %19 = getelementptr inbounds i8, ptr %0, i64 176
  %20 = load ptr, ptr %19, align 8
  tail call void @_efree(ptr noundef %20) #10
  store ptr null, ptr %19, align 8
  br label %42

21:                                               ; preds = %12
  %22 = tail call noalias ptr @_emalloc(i64 noundef %.) #11
  %23 = getelementptr inbounds i8, ptr %0, i64 176
  store ptr %22, ptr %23, align 8
  %24 = icmp eq ptr %22, null
  br i1 %24, label %41, label %25

25:                                               ; preds = %21
  %26 = load i64, ptr %13, align 8
  %27 = load i64, ptr %2, align 8
  %28 = sub i64 %26, %27
  %29 = getelementptr inbounds i8, ptr %0, i64 168
  store i64 %28, ptr %29, align 8
  %30 = load i32, ptr %0, align 8
  %31 = tail call i64 @lseek(i32 noundef %30, i64 noundef %28, i32 noundef 0) #10
  %32 = icmp eq i64 %31, -1
  br i1 %32, label %39, label %33

33:                                               ; preds = %25
  %34 = load i32, ptr %0, align 8
  %35 = load ptr, ptr %23, align 8
  %36 = load i64, ptr %2, align 8
  %37 = tail call i64 @read(i32 noundef %34, ptr noundef %35, i64 noundef %36) #10
  %38 = load i64, ptr %2, align 8
  %.not64 = icmp eq i64 %37, %38
  br i1 %.not64, label %42, label %39

39:                                               ; preds = %33, %25
  %40 = load ptr, ptr %23, align 8
  tail call void @_efree(ptr noundef %40) #10
  store ptr null, ptr %23, align 8
  br label %41

41:                                               ; preds = %21, %7, %39
  store i64 -1, ptr %2, align 8
  br label %42

42:                                               ; preds = %33, %41, %18, %4
  %.0 = phi i32 [ %6, %4 ], [ 0, %18 ], [ -1, %41 ], [ 0, %33 ]
  ret i32 %.0
}